; Function Attrs: mustprogress uwtable
define noundef i32 @_ZN5Ipopt13TripletHelper17GetNumberEntries_ERKNS_15TransposeMatrixE(ptr noundef nonnull readonly align 8 captures(none) dereferenceable(80) %0) local_unnamed_addr #0 align 2 personality ptr @__gxx_personality_v0 {
  %2 = getelementptr inbounds nuw i8, ptr %0, i64 72
  %3 = load ptr, ptr %2, align 8, !tbaa !102, !noalias !115
  %.not.i.i.i.i = icmp eq ptr %3, null
  br i1 %.not.i.i.i.i, label %_ZNK5Ipopt15TransposeMatrix10OrigMatrixEv.exit, label %4

4:                                                ; preds = %1
  %5 = getelementptr inbounds nuw i8, ptr %3, i64 8
  %6 = load i32, ptr %5, align 8, !tbaa !42, !noalias !115
  %7 = add nsw i32 %6, 1
  store i32 %7, ptr %5, align 8, !tbaa !42, !noalias !115
  br label %_ZNK5Ipopt15TransposeMatrix10OrigMatrixEv.exit

_ZNK5Ipopt15TransposeMatrix10OrigMatrixEv.exit:   ; preds = %1, %4
  %8 = invoke noundef i32 @_ZN5Ipopt13TripletHelper16GetNumberEntriesERKNS_6MatrixE(ptr noundef nonnull align 8 dereferenceable(69) %3)
          to label %9 unwind label %18

9:                                                ; preds = %_ZNK5Ipopt15TransposeMatrix10OrigMatrixEv.exit
  %10 = getelementptr inbounds nuw i8, ptr %3, i64 8
  %11 = load i32, ptr %10, align 8, !tbaa !42
  %12 = add nsw i32 %11, -1
  store i32 %12, ptr %10, align 8, !tbaa !42
  %13 = icmp eq i32 %12, 0
  br i1 %13, label %14, label %_ZN5Ipopt8SmartPtrIKNS_6MatrixEED2Ev.exit

14:                                               ; preds = %9
  %15 = load ptr, ptr %3, align 8, !tbaa !43
  %16 = getelementptr inbounds nuw i8, ptr %15, i64 8
  %17 = load ptr, ptr %16, align 8
  tail call void %17(ptr noundef nonnull align 8 dereferenceable(69) %3) #17
  br label %_ZN5Ipopt8SmartPtrIKNS_6MatrixEED2Ev.exit

_ZN5Ipopt8SmartPtrIKNS_6MatrixEED2Ev.exit:        ; preds = %9, %14
  ret i32 %8

18:                                               ; preds = %_ZNK5Ipopt15TransposeMatrix10OrigMatrixEv.exit
  %19 = landingpad { ptr, i32 }
          cleanup
  %20 = getelementptr inbounds nuw i8, ptr %3, i64 8
  %21 = load i32, ptr %20, align 8, !tbaa !42
  %22 = add nsw i32 %21, -1
  store i32 %22, ptr %20, align 8, !tbaa !42
  %23 = icmp eq i32 %22, 0
  br i1 %23, label %24, label %_ZN5Ipopt8SmartPtrIKNS_6MatrixEED2Ev.exit3

24:                                               ; preds = %18
  %25 = load ptr, ptr %3, align 8, !tbaa !43
  %26 = getelementptr inbounds nuw i8, ptr %25, i64 8
  %27 = load ptr, ptr %26, align 8
  tail call void %27(ptr noundef nonnull align 8 dereferenceable(69) %3) #17
  br label %_ZN5Ipopt8SmartPtrIKNS_6MatrixEED2Ev.exit3

_ZN5Ipopt8SmartPtrIKNS_6MatrixEED2Ev.exit3:       ; preds = %18, %24
  resume { ptr, i32 } %19
}